	.file	"palindrome.c"
	.text
	.globl	reverse_string
	.type	reverse_string, @function
reverse_string:
.LFB0:
	.cfi_startproc
	pushq	%rbp
	.cfi_def_cfa_offset 16
	.cfi_offset 6, -16
	movq	%rsp, %rbp
	.cfi_def_cfa_register 6
	subq	$32, %rsp
	movq	%rdi, -24(%rbp)
	movq	-24(%rbp), %rax
	movq	%rax, %rdi
	call	strlen@PLT
	movl	%eax, -4(%rbp)
	movl	$0, -8(%rbp)
	jmp	.L2
.L3:
	movl	-8(%rbp), %eax
	movslq	%eax, %rdx
	movq	-24(%rbp), %rax
	addq	%rdx, %rax
	movzbl	(%rax), %eax
	movb	%al, -9(%rbp)
	movl	-4(%rbp), %eax
	subl	-8(%rbp), %eax
	cltq
	leaq	-1(%rax), %rdx
	movq	-24(%rbp), %rax
	addq	%rdx, %rax
	movl	-8(%rbp), %edx
	movslq	%edx, %rcx
	movq	-24(%rbp), %rdx
	addq	%rcx, %rdx
	movzbl	(%rax), %eax
	movb	%al, (%rdx)
	movl	-4(%rbp), %eax
	subl	-8(%rbp), %eax
	cltq
	leaq	-1(%rax), %rdx
	movq	-24(%rbp), %rax
	addq	%rax, %rdx
	movzbl	-9(%rbp), %eax
	movb	%al, (%rdx)
	addl	$1, -8(%rbp)
.L2:
	movl	-4(%rbp), %eax
	movl	%eax, %edx
	shrl	$31, %edx
	addl	%edx, %eax
	sarl	%eax
	cmpl	%eax, -8(%rbp)
	jl	.L3
	nop
	nop
	leave
	.cfi_def_cfa 7, 8
	ret
	.cfi_endproc
.LFE0:
	.size	reverse_string, .-reverse_string
	.section	.rodata
	.align 8
.LC0:
	.string	"Enter the string to check if it is a palindrome (within 100 characters): "
.LC1:
	.string	"%s"
.LC2:
	.string	"The string is a palindrome."
	.align 8
.LC3:
	.string	"The string is not a palindrome."
	.text
	.globl	main
	.type	main, @function
main:
.LFB1:
	.cfi_startproc
	pushq	%rbp
	.cfi_def_cfa_offset 16
	.cfi_offset 6, -16
	movq	%rsp, %rbp
	.cfi_def_cfa_register 6
	subq	$240, %rsp
	movl	%edi, -228(%rbp)
	movq	%rsi, -240(%rbp)
	movq	%fs:40, %rax
	movq	%rax, -8(%rbp)
	xorl	%eax, %eax
	leaq	.LC0(%rip), %rax
	movq	%rax, %rdi
	movl	$0, %eax
	call	printf@PLT
	leaq	-224(%rbp), %rax
	movq	%rax, %rsi
	leaq	.LC1(%rip), %rax
	movq	%rax, %rdi
	movl	$0, %eax
	call	__isoc99_scanf@PLT
	leaq	-224(%rbp), %rdx
	leaq	-112(%rbp), %rax
	movq	%rdx, %rsi
	movq	%rax, %rdi
	call	strcpy@PLT
	leaq	-112(%rbp), %rax
	movq	%rax, %rdi
	call	reverse_string
	leaq	-112(%rbp), %rdx
	leaq	-224(%rbp), %rax
	movq	%rdx, %rsi
	movq	%rax, %rdi
	call	strcmp@PLT
	testl	%eax, %eax
	jne	.L5
	leaq	.LC2(%rip), %rax
	movq	%rax, %rdi
	call	puts@PLT
	jmp	.L6
.L5:
	leaq	.LC3(%rip), %rax
	movq	%rax, %rdi
	call	puts@PLT
.L6:
	movl	$0, %eax
	movq	-8(%rbp), %rdx
	subq	%fs:40, %rdx
	je	.L8
	call	__stack_chk_fail@PLT
.L8:
	leave
	.cfi_def_cfa 7, 8
	ret
	.cfi_endproc
.LFE1:
	.size	main, .-main
	.ident	"GCC: (GNU) 14.2.1 20240805"
	.section	.note.GNU-stack,"",@progbits
